target datalayout = "e-m:e-p270:32:32-p271:32:32-p272:64:64-i64:64-i128:128-f80:128-n8:16:32:64-S128"
target triple = "x86_64-pc-linux-gnu"

%"class.mbp::term_graph::is_variable_proc" = type { %class.is_variable_proc, i8, [7 x i8], %class.obj_hashtable, %class.obj_hashtable }
%class.is_variable_proc = type { ptr }
%class.obj_hashtable = type { %class.core_hashtable.base.18, [4 x i8] }
%class.core_hashtable.base.18 = type <{ ptr, i32, i32, i32 }>
%class.app = type { %class.expr, ptr, i32, %struct.app_flags, [0 x ptr] }
%class.expr = type { %class.ast }
%class.ast = type { i32, i32, i32, i32 }
%struct.app_flags = type <{ i16, i8, i8 }>

; Function Attrs: mustprogress nounwind uwtable
define linkonce_odr hidden noundef i32 @_ZNK3ast8get_kindEv(ptr noundef nonnull align 4 dereferenceable(16) %0) #6 comdat align 2 {
  %2 = alloca ptr, align 8
  store ptr %0, ptr %2, align 8, !tbaa !68
  %3 = load ptr, ptr %2, align 8
  %4 = getelementptr inbounds nuw %class.ast, ptr %3, i32 0, i32 1
  %5 = load i32, ptr %4, align 4
  %6 = and i32 %5, 65535
  ret i32 %6
}

; Function Attrs: mustprogress nounwind uwtable
define linkonce_odr hidden noundef ptr @_ZNK3app8get_declEv(ptr noundef nonnull align 8 dereferenceable(32) %0) #6 comdat align 2 {
  %2 = alloca ptr, align 8
  store ptr %0, ptr %2, align 8, !tbaa !55
  %3 = load ptr, ptr %2, align 8
  %4 = getelementptr inbounds nuw %class.app, ptr %3, i32 0, i32 1
  %5 = load ptr, ptr %4, align 8, !tbaa !74
  ret ptr %5
}

; Function Attrs: inlinehint mustprogress nounwind uwtable
define linkonce_odr hidden noundef ptr @_Z6to_appPK3ast(ptr noundef %0) #8 comdat {
  %2 = alloca ptr, align 8
  store ptr %0, ptr %2, align 8, !tbaa !68
  %3 = load ptr, ptr %2, align 8, !tbaa !68
  ret ptr %3
}

; Function Attrs: inlinehint mustprogress uwtable
define linkonce_odr hidden noundef zeroext i1 @_Z6is_appPK3ast(ptr noundef %0) #9 comdat {
  %2 = alloca ptr, align 8
  store ptr %0, ptr %2, align 8, !tbaa !68
  %3 = load ptr, ptr %2, align 8, !tbaa !68
  %4 = call noundef i32 @_ZNK3ast8get_kindEv(ptr noundef nonnull align 4 dereferenceable(16) %3)
  %5 = icmp eq i32 %4, 0
  ret i1 %5
}

; Function Attrs: mustprogress uwtable
define hidden void @_ZN3mbp10term_graph16is_variable_proc11mark_solvedEPK4expr(ptr noundef nonnull align 8 dereferenceable(64) %0, ptr noundef %1) #4 align 2 {
  %3 = alloca ptr, align 8
  %4 = alloca ptr, align 8
  %5 = alloca ptr, align 8
  store ptr %0, ptr %3, align 8, !tbaa !16
  store ptr %1, ptr %4, align 8, !tbaa !8
  %6 = load ptr, ptr %3, align 8
  %7 = load ptr, ptr %4, align 8, !tbaa !8
  %8 = load ptr, ptr %6, align 8, !tbaa !53
  %9 = getelementptr inbounds ptr, ptr %8, i64 2
  %10 = load ptr, ptr %9, align 8
  %11 = call noundef zeroext i1 %10(ptr noundef nonnull align 8 dereferenceable(64) %6, ptr noundef %7)
  br i1 %11, label %12, label %20

12:                                               ; preds = %2
  %13 = load ptr, ptr %4, align 8, !tbaa !8
  %14 = call noundef zeroext i1 @_Z6is_appPK3ast(ptr noundef %13)
  br i1 %14, label %15, label %20

15:                                               ; preds = %12
  %16 = getelementptr inbounds nuw %"class.mbp::term_graph::is_variable_proc", ptr %6, i32 0, i32 4
  call void @llvm.lifetime.start.p0(i64 8, ptr %5) #3
  %17 = load ptr, ptr %4, align 8, !tbaa !8
  %18 = call noundef ptr @_Z6to_appPK3ast(ptr noundef %17)
  %19 = call noundef ptr @_ZNK3app8get_declEv(ptr noundef nonnull align 8 dereferenceable(32) %18)
  store ptr %19, ptr %5, align 8, !tbaa !57
  call void @_ZN14core_hashtableI14obj_hash_entryI9func_declE12obj_ptr_hashIS1_E6ptr_eqIS1_EE6insertEOPS1_(ptr noundef nonnull align 8 dereferenceable(20) %16, ptr noundef nonnull align 8 dereferenceable(8) %5)
  call void @llvm.lifetime.end.p0(i64 8, ptr %5) #3
  br label %20

20:                                               ; preds = %15, %12, %2
  ret void
}